target datalayout = "e-m:e-p270:32:32-p271:32:32-p272:64:64-i64:64-i128:128-f80:128-n8:16:32:64-S128"
target triple = "x86_64-pc-linux-gnu"

%struct.crypto_ex_data_st = type { ptr, ptr }
%struct.x509_store_ctx_st = type { ptr, ptr, ptr, ptr, ptr, ptr, ptr, ptr, ptr, ptr, ptr, ptr, ptr, ptr, ptr, ptr, ptr, ptr, i32, i32, ptr, ptr, i32, i32, i32, ptr, ptr, ptr, i32, i32, ptr, %struct.crypto_ex_data_st, ptr, i32, ptr, ptr, ptr }
%struct.ssl_dane_st = type { ptr, ptr, ptr, ptr, ptr, i32, i32, i32, i64 }
%struct.danetls_record_st = type { i8, i8, i8, ptr, i64, ptr }

; Function Attrs: inlinehint nounwind uwtable
define internal ptr @ossl_check_X509_sk_type(ptr noundef %0) #3 {
  %2 = alloca ptr, align 8
  store ptr %0, ptr %2, align 8, !tbaa !60
  %3 = load ptr, ptr %2, align 8, !tbaa !60
  ret ptr %3
}

; Function Attrs: inlinehint nounwind uwtable
define internal ptr @sk_danetls_record_value(ptr noundef %0, i32 noundef %1) #3 {
  %3 = alloca ptr, align 8
  %4 = alloca i32, align 4
  store ptr %0, ptr %3, align 8, !tbaa !186
  store i32 %1, ptr %4, align 4, !tbaa !8
  %5 = load ptr, ptr %3, align 8, !tbaa !186
  %6 = load i32, ptr %4, align 4, !tbaa !8
  %7 = call ptr @OPENSSL_sk_value(ptr noundef %5, i32 noundef %6)
  ret ptr %7
}

; Function Attrs: inlinehint nounwind uwtable
define internal i32 @sk_danetls_record_num(ptr noundef %0) #3 {
  %2 = alloca ptr, align 8
  store ptr %0, ptr %2, align 8, !tbaa !186
  %3 = load ptr, ptr %2, align 8, !tbaa !186
  %4 = call i32 @OPENSSL_sk_num(ptr noundef %3)
  ret i32 %4
}

; Function Attrs: inlinehint nounwind uwtable
define internal ptr @ossl_check_const_X509_sk_type(ptr noundef %0) #3 {
  %2 = alloca ptr, align 8
  store ptr %0, ptr %2, align 8, !tbaa !60
  %3 = load ptr, ptr %2, align 8, !tbaa !60
  ret ptr %3
}

; Function Attrs: nounwind uwtable
define internal i32 @check_dane_pkeys(ptr noundef %0) #0 {
  %2 = alloca i32, align 4
  %3 = alloca ptr, align 8
  %4 = alloca ptr, align 8
  %5 = alloca ptr, align 8
  %6 = alloca i32, align 4
  %7 = alloca ptr, align 8
  %8 = alloca i32, align 4
  %9 = alloca i32, align 4
  %10 = alloca i32, align 4
  store ptr %0, ptr %3, align 8, !tbaa !40
  call void @llvm.lifetime.start.p0(i64 8, ptr %4) #8
  %11 = load ptr, ptr %3, align 8, !tbaa !40
  %12 = getelementptr inbounds nuw %struct.x509_store_ctx_st, ptr %11, i32 0, i32 32
  %13 = load ptr, ptr %12, align 8, !tbaa !54
  store ptr %13, ptr %4, align 8, !tbaa !176
  call void @llvm.lifetime.start.p0(i64 8, ptr %5) #8
  call void @llvm.lifetime.start.p0(i64 4, ptr %6) #8
  %14 = load ptr, ptr %3, align 8, !tbaa !40
  %15 = getelementptr inbounds nuw %struct.x509_store_ctx_st, ptr %14, i32 0, i32 19
  %16 = load i32, ptr %15, align 4, !tbaa !62
  store i32 %16, ptr %6, align 4, !tbaa !8
  call void @llvm.lifetime.start.p0(i64 8, ptr %7) #8
  %17 = load ptr, ptr %3, align 8, !tbaa !40
  %18 = getelementptr inbounds nuw %struct.x509_store_ctx_st, ptr %17, i32 0, i32 20
  %19 = load ptr, ptr %18, align 8, !tbaa !61
  %20 = call ptr @ossl_check_const_X509_sk_type(ptr noundef %19)
  %21 = load i32, ptr %6, align 4, !tbaa !8
  %22 = sub nsw i32 %21, 1
  %23 = call ptr @OPENSSL_sk_value(ptr noundef %20, i32 noundef %22)
  store ptr %23, ptr %7, align 8, !tbaa !3
  call void @llvm.lifetime.start.p0(i64 4, ptr %8) #8
  %24 = load ptr, ptr %4, align 8, !tbaa !176
  %25 = getelementptr inbounds nuw %struct.ssl_dane_st, ptr %24, i32 0, i32 1
  %26 = load ptr, ptr %25, align 8, !tbaa !55
  %27 = call i32 @sk_danetls_record_num(ptr noundef %26)
  store i32 %27, ptr %8, align 4, !tbaa !8
  call void @llvm.lifetime.start.p0(i64 4, ptr %9) #8
  store i32 0, ptr %9, align 4, !tbaa !8
  br label %28

28:                                               ; preds = %99, %1
  %29 = load i32, ptr %9, align 4, !tbaa !8
  %30 = load i32, ptr %8, align 4, !tbaa !8
  %31 = icmp slt i32 %29, %30
  br i1 %31, label %32, label %102

32:                                               ; preds = %28
  %33 = load ptr, ptr %4, align 8, !tbaa !176
  %34 = getelementptr inbounds nuw %struct.ssl_dane_st, ptr %33, i32 0, i32 1
  %35 = load ptr, ptr %34, align 8, !tbaa !55
  %36 = load i32, ptr %9, align 4, !tbaa !8
  %37 = call ptr @sk_danetls_record_value(ptr noundef %35, i32 noundef %36)
  store ptr %37, ptr %5, align 8, !tbaa !188
  %38 = load ptr, ptr %5, align 8, !tbaa !188
  %39 = getelementptr inbounds nuw %struct.danetls_record_st, ptr %38, i32 0, i32 0
  %40 = load i8, ptr %39, align 8, !tbaa !189
  %41 = zext i8 %40 to i32
  %42 = icmp ne i32 %41, 2
  br i1 %42, label %62, label %43

43:                                               ; preds = %32
  %44 = load ptr, ptr %5, align 8, !tbaa !188
  %45 = getelementptr inbounds nuw %struct.danetls_record_st, ptr %44, i32 0, i32 1
  %46 = load i8, ptr %45, align 1, !tbaa !191
  %47 = zext i8 %46 to i32
  %48 = icmp ne i32 %47, 1
  br i1 %48, label %62, label %49

49:                                               ; preds = %43
  %50 = load ptr, ptr %5, align 8, !tbaa !188
  %51 = getelementptr inbounds nuw %struct.danetls_record_st, ptr %50, i32 0, i32 2
  %52 = load i8, ptr %51, align 2, !tbaa !192
  %53 = zext i8 %52 to i32
  %54 = icmp ne i32 %53, 0
  br i1 %54, label %62, label %55

55:                                               ; preds = %49
  %56 = load ptr, ptr %7, align 8, !tbaa !3
  %57 = load ptr, ptr %5, align 8, !tbaa !188
  %58 = getelementptr inbounds nuw %struct.danetls_record_st, ptr %57, i32 0, i32 5
  %59 = load ptr, ptr %58, align 8, !tbaa !268
  %60 = call i32 @X509_verify(ptr noundef %56, ptr noundef %59)
  %61 = icmp sle i32 %60, 0
  br i1 %61, label %62, label %63

62:                                               ; preds = %55, %49, %43, %32
  br label %99

63:                                               ; preds = %55
  %64 = load ptr, ptr %4, align 8, !tbaa !176
  %65 = getelementptr inbounds nuw %struct.ssl_dane_st, ptr %64, i32 0, i32 4
  %66 = load ptr, ptr %65, align 8, !tbaa !182
  call void @X509_free(ptr noundef %66)
  %67 = load ptr, ptr %4, align 8, !tbaa !176
  %68 = getelementptr inbounds nuw %struct.ssl_dane_st, ptr %67, i32 0, i32 4
  store ptr null, ptr %68, align 8, !tbaa !182
  %69 = load ptr, ptr %3, align 8, !tbaa !40
  %70 = getelementptr inbounds nuw %struct.x509_store_ctx_st, ptr %69, i32 0, i32 33
  store i32 1, ptr %70, align 8, !tbaa !139
  %71 = load i32, ptr %6, align 4, !tbaa !8
  %72 = sub nsw i32 %71, 1
  %73 = load ptr, ptr %4, align 8, !tbaa !176
  %74 = getelementptr inbounds nuw %struct.ssl_dane_st, ptr %73, i32 0, i32 6
  store i32 %72, ptr %74, align 4, !tbaa !181
  %75 = load ptr, ptr %5, align 8, !tbaa !188
  %76 = load ptr, ptr %4, align 8, !tbaa !176
  %77 = getelementptr inbounds nuw %struct.ssl_dane_st, ptr %76, i32 0, i32 3
  store ptr %75, ptr %77, align 8, !tbaa !187
  %78 = load ptr, ptr %3, align 8, !tbaa !40
  %79 = getelementptr inbounds nuw %struct.x509_store_ctx_st, ptr %78, i32 0, i32 20
  %80 = load ptr, ptr %79, align 8, !tbaa !61
  %81 = call ptr @ossl_check_const_X509_sk_type(ptr noundef %80)
  %82 = call i32 @OPENSSL_sk_num(ptr noundef %81)
  store i32 %82, ptr %6, align 4, !tbaa !8
  br label %83

83:                                               ; preds = %95, %63
  %84 = load i32, ptr %6, align 4, !tbaa !8
  %85 = load ptr, ptr %3, align 8, !tbaa !40
  %86 = getelementptr inbounds nuw %struct.x509_store_ctx_st, ptr %85, i32 0, i32 19
  %87 = load i32, ptr %86, align 4, !tbaa !62
  %88 = icmp sgt i32 %84, %87
  br i1 %88, label %89, label %98

89:                                               ; preds = %83
  %90 = load ptr, ptr %3, align 8, !tbaa !40
  %91 = getelementptr inbounds nuw %struct.x509_store_ctx_st, ptr %90, i32 0, i32 20
  %92 = load ptr, ptr %91, align 8, !tbaa !61
  %93 = call ptr @ossl_check_X509_sk_type(ptr noundef %92)
  %94 = call ptr @OPENSSL_sk_pop(ptr noundef %93)
  call void @X509_free(ptr noundef %94)
  br label %95

95:                                               ; preds = %89
  %96 = load i32, ptr %6, align 4, !tbaa !8
  %97 = add nsw i32 %96, -1
  store i32 %97, ptr %6, align 4, !tbaa !8
  br label %83, !llvm.loop !269

98:                                               ; preds = %83
  store i32 1, ptr %2, align 4
  store i32 1, ptr %10, align 4
  br label %103

99:                                               ; preds = %62
  %100 = load i32, ptr %9, align 4, !tbaa !8
  %101 = add nsw i32 %100, 1
  store i32 %101, ptr %9, align 4, !tbaa !8
  br label %28, !llvm.loop !270

102:                                              ; preds = %28
  store i32 3, ptr %2, align 4
  store i32 1, ptr %10, align 4
  br label %103

103:                                              ; preds = %102, %98
  call void @llvm.lifetime.end.p0(i64 4, ptr %9) #8
  call void @llvm.lifetime.end.p0(i64 4, ptr %8) #8
  call void @llvm.lifetime.end.p0(i64 8, ptr %7) #8
  call void @llvm.lifetime.end.p0(i64 4, ptr %6) #8
  call void @llvm.lifetime.end.p0(i64 8, ptr %5) #8
  call void @llvm.lifetime.end.p0(i64 8, ptr %4) #8
  %104 = load i32, ptr %2, align 4
  ret i32 %104
}