; Function Attrs: nounwind uwtable
define internal fastcc range(i32 1, 4) i32 @check_dane_pkeys(ptr noundef nonnull captures(none) %0) unnamed_addr #0 {
  %2 = getelementptr inbounds nuw i8, ptr %0, i64 240
  %3 = load ptr, ptr %2, align 8, !tbaa !60
  %4 = getelementptr inbounds nuw i8, ptr %0, i64 148
  %5 = load i32, ptr %4, align 4, !tbaa !86
  %6 = getelementptr inbounds nuw i8, ptr %0, i64 152
  %7 = load ptr, ptr %6, align 8, !tbaa !56
  %8 = add nsw i32 %5, -1
  %9 = tail call ptr @OPENSSL_sk_value(ptr noundef %7, i32 noundef %8) #10
  %10 = getelementptr inbounds nuw i8, ptr %3, i64 8
  %11 = load ptr, ptr %10, align 8, !tbaa !61
  %12 = tail call i32 @OPENSSL_sk_num(ptr noundef %11) #10
  %13 = icmp sgt i32 %12, 0
  br i1 %13, label %.lr.ph, label %.loopexit

.lr.ph:                                           ; preds = %1, %43
  %.032 = phi i32 [ %44, %43 ], [ 0, %1 ]
  %14 = load ptr, ptr %10, align 8, !tbaa !61
  %15 = tail call ptr @OPENSSL_sk_value(ptr noundef %14, i32 noundef %.032) #10
  %16 = load i8, ptr %15, align 8, !tbaa !70
  %.not = icmp eq i8 %16, 2
  br i1 %.not, label %17, label %43

17:                                               ; preds = %.lr.ph
  %18 = getelementptr inbounds nuw i8, ptr %15, i64 1
  %19 = load i8, ptr %18, align 1, !tbaa !72
  %.not29 = icmp eq i8 %19, 1
  br i1 %.not29, label %20, label %43

20:                                               ; preds = %17
  %21 = getelementptr inbounds nuw i8, ptr %15, i64 2
  %22 = load i8, ptr %21, align 2, !tbaa !73
  %.not30 = icmp eq i8 %22, 0
  br i1 %.not30, label %23, label %43

23:                                               ; preds = %20
  %24 = getelementptr inbounds nuw i8, ptr %15, i64 24
  %25 = load ptr, ptr %24, align 8, !tbaa !230
  %26 = tail call i32 @X509_verify(ptr noundef %9, ptr noundef %25) #10
  %27 = icmp slt i32 %26, 1
  br i1 %27, label %43, label %28

28:                                               ; preds = %23
  %29 = getelementptr inbounds nuw i8, ptr %3, i64 32
  %30 = load ptr, ptr %29, align 8, !tbaa !66
  tail call void @X509_free(ptr noundef %30) #10
  store ptr null, ptr %29, align 8, !tbaa !66
  %31 = getelementptr inbounds nuw i8, ptr %0, i64 248
  store i32 1, ptr %31, align 8, !tbaa !158
  %32 = getelementptr inbounds nuw i8, ptr %3, i64 44
  store i32 %8, ptr %32, align 4, !tbaa !67
  %33 = getelementptr inbounds nuw i8, ptr %3, i64 24
  store ptr %15, ptr %33, align 8, !tbaa !84
  %34 = load ptr, ptr %6, align 8, !tbaa !56
  %35 = tail call i32 @OPENSSL_sk_num(ptr noundef %34) #10
  %36 = load i32, ptr %4, align 4, !tbaa !86
  %37 = icmp sgt i32 %35, %36
  br i1 %37, label %.lr.ph34, label %.loopexit

.lr.ph34:                                         ; preds = %28, %.lr.ph34
  %.02833 = phi i32 [ %40, %.lr.ph34 ], [ %35, %28 ]
  %38 = load ptr, ptr %6, align 8, !tbaa !56
  %39 = tail call ptr @OPENSSL_sk_pop(ptr noundef %38) #10
  tail call void @X509_free(ptr noundef %39) #10
  %40 = add nsw i32 %.02833, -1
  %41 = load i32, ptr %4, align 4, !tbaa !86
  %42 = icmp sgt i32 %40, %41
  br i1 %42, label %.lr.ph34, label %.loopexit, !llvm.loop !231

43:                                               ; preds = %.lr.ph, %17, %20, %23
  %44 = add nuw nsw i32 %.032, 1
  %exitcond.not = icmp eq i32 %44, %12
  br i1 %exitcond.not, label %.loopexit, label %.lr.ph, !llvm.loop !232

.loopexit:                                        ; preds = %43, %.lr.ph34, %1, %28
  %.027 = phi i32 [ 1, %28 ], [ 3, %1 ], [ 1, %.lr.ph34 ], [ 3, %43 ]
  ret i32 %.027
}